target datalayout = "e-m:e-p270:32:32-p271:32:32-p272:64:64-i64:64-i128:128-f80:128-n8:16:32:64-S128"
target triple = "x86_64-pc-linux-gnu"

; Function Attrs: mustprogress nounwind uwtable
define dso_local i64 @meshopt_encodeIndexBufferBound(i64 noundef %0, i64 noundef %1) #3 {
  %3 = alloca i64, align 8
  %4 = alloca i64, align 8
  %5 = alloca i32, align 4
  %6 = alloca i32, align 4
  store i64 %0, ptr %3, align 8, !tbaa !9
  store i64 %1, ptr %4, align 8, !tbaa !9
  call void @llvm.lifetime.start.p0(i64 4, ptr %5) #4
  store i32 1, ptr %5, align 4, !tbaa !13
  br label %7

7:                                                ; preds = %18, %2
  %8 = load i32, ptr %5, align 4, !tbaa !13
  %9 = icmp ult i32 %8, 32
  br i1 %9, label %10, label %16

10:                                               ; preds = %7
  %11 = load i64, ptr %4, align 8, !tbaa !9
  %12 = load i32, ptr %5, align 4, !tbaa !13
  %13 = zext i32 %12 to i64
  %14 = shl i64 1, %13
  %15 = icmp ugt i64 %11, %14
  br label %16

16:                                               ; preds = %10, %7
  %17 = phi i1 [ false, %7 ], [ %15, %10 ]
  br i1 %17, label %18, label %21

18:                                               ; preds = %16
  %19 = load i32, ptr %5, align 4, !tbaa !13
  %20 = add i32 %19, 1
  store i32 %20, ptr %5, align 4, !tbaa !13
  br label %7, !llvm.loop !31

21:                                               ; preds = %16
  call void @llvm.lifetime.start.p0(i64 4, ptr %6) #4
  %22 = load i32, ptr %5, align 4, !tbaa !13
  %23 = add i32 %22, 1
  %24 = add i32 %23, 6
  %25 = udiv i32 %24, 7
  store i32 %25, ptr %6, align 4, !tbaa !13
  %26 = load i64, ptr %3, align 8, !tbaa !9
  %27 = udiv i64 %26, 3
  %28 = load i32, ptr %6, align 4, !tbaa !13
  %29 = mul i32 3, %28
  %30 = add i32 2, %29
  %31 = zext i32 %30 to i64
  %32 = mul i64 %27, %31
  %33 = add i64 1, %32
  %34 = add i64 %33, 16
  call void @llvm.lifetime.end.p0(i64 4, ptr %6) #4
  call void @llvm.lifetime.end.p0(i64 4, ptr %5) #4
  ret i64 %34
}